; Function Attrs: uwtable
define internal noundef zeroext i1 @_ZThn8_N12_GLOBAL__N_14File5writeEPKvm(ptr noundef %0, ptr nocapture noundef %1, i64 noundef %2) unnamed_addr #11 align 2 personality ptr @__gxx_personality_v0 {
  %4 = getelementptr inbounds i8, ptr %0, i64 64
  %5 = tail call noundef i32 @pthread_mutex_lock(ptr noundef nonnull %4) #23
  %.not.i.i.i.i = icmp eq i32 %5, 0
  br i1 %.not.i.i.i.i, label %_ZNSt11unique_lockISt5mutexEC2ERS0_.exit.i, label %6

6:                                                ; preds = %3
  tail call void @_ZSt20__throw_system_errori(i32 noundef %5) #25
  unreachable

_ZNSt11unique_lockISt5mutexEC2ERS0_.exit.i:       ; preds = %3
  %7 = getelementptr inbounds i8, ptr %0, i64 8
  %8 = load ptr, ptr %7, align 8
  %9 = tail call i64 @fwrite(ptr noundef %1, i64 noundef 1, i64 noundef %2, ptr noundef %8)
  %10 = icmp eq i64 %9, %2
  br i1 %10, label %11, label %_ZN12_GLOBAL__N_14File5writeEPKvm.exit

11:                                               ; preds = %_ZNSt11unique_lockISt5mutexEC2ERS0_.exit.i
  %12 = load ptr, ptr %7, align 8
  %13 = tail call i32 @fflush(ptr noundef %12)
  br label %_ZN12_GLOBAL__N_14File5writeEPKvm.exit

_ZN12_GLOBAL__N_14File5writeEPKvm.exit:           ; preds = %_ZNSt11unique_lockISt5mutexEC2ERS0_.exit.i, %11
  %14 = tail call noundef i32 @pthread_mutex_unlock(ptr noundef nonnull %4) #23
  ret i1 %10
}